target datalayout = "e-m:e-p270:32:32-p271:32:32-p272:64:64-i64:64-i128:128-f80:128-n8:16:32:64-S128"
target triple = "x86_64-pc-linux-gnu"

; Function Attrs: nounwind uwtable
define internal i32 @os_rename(ptr noundef %0) #0 {
  %2 = alloca ptr, align 8
  %3 = alloca ptr, align 8
  %4 = alloca ptr, align 8
  store ptr %0, ptr %2, align 8, !tbaa !4
  call void @llvm.lifetime.start.p0(i64 8, ptr %3) #9
  %5 = load ptr, ptr %2, align 8, !tbaa !4
  %6 = call ptr @luaL_checklstring(ptr noundef %5, i32 noundef 1, ptr noundef null)
  store ptr %6, ptr %3, align 8, !tbaa !9
  call void @llvm.lifetime.start.p0(i64 8, ptr %4) #9
  %7 = load ptr, ptr %2, align 8, !tbaa !4
  %8 = call ptr @luaL_checklstring(ptr noundef %7, i32 noundef 2, ptr noundef null)
  store ptr %8, ptr %4, align 8, !tbaa !9
  %9 = call ptr @__errno_location() #11
  store i32 0, ptr %9, align 4, !tbaa !20
  %10 = load ptr, ptr %2, align 8, !tbaa !4
  %11 = load ptr, ptr %3, align 8, !tbaa !9
  %12 = load ptr, ptr %4, align 8, !tbaa !9
  %13 = call i32 @rename(ptr noundef %11, ptr noundef %12) #9
  %14 = icmp eq i32 %13, 0
  %15 = zext i1 %14 to i32
  %16 = call i32 @luaL_fileresult(ptr noundef %10, i32 noundef %15, ptr noundef null)
  call void @llvm.lifetime.end.p0(i64 8, ptr %4) #9
  call void @llvm.lifetime.end.p0(i64 8, ptr %3) #9
  ret i32 %16
}