; Function Attrs: nounwind uwtable
define internal i32 @os_rename(ptr noundef %0) #0 {
  %2 = tail call ptr @luaL_checklstring(ptr noundef %0, i32 noundef 1, ptr noundef null) #12
  %3 = tail call ptr @luaL_checklstring(ptr noundef %0, i32 noundef 2, ptr noundef null) #12
  %4 = tail call ptr @__errno_location() #13
  store i32 0, ptr %4, align 4, !tbaa !16
  %5 = tail call i32 @rename(ptr noundef %2, ptr noundef %3) #12
  %6 = icmp eq i32 %5, 0
  %7 = zext i1 %6 to i32
  %8 = tail call i32 @luaL_fileresult(ptr noundef %0, i32 noundef %7, ptr noundef null) #12
  ret i32 %8
}